target datalayout = "e-m:e-p270:32:32-p271:32:32-p272:64:64-i64:64-i128:128-f80:128-n8:16:32:64-S128"
target triple = "x86_64-pc-linux-gnu"

@.str.107 = private unnamed_addr constant [3 x i8] c"ok\00", align 1
@.str.117 = private unnamed_addr constant [34 x i8] c"wrong number or type of arguments\00", align 1

; Function Attrs: nounwind uwtable
define dso_local void @luaPushError(ptr noundef %0, ptr noundef %1) #0 {
  %3 = alloca ptr, align 8
  %4 = alloca ptr, align 8
  store ptr %0, ptr %3, align 8, !tbaa !5
  store ptr %1, ptr %4, align 8, !tbaa !10
  %5 = load ptr, ptr %3, align 8, !tbaa !5
  %6 = load ptr, ptr %4, align 8, !tbaa !10
  %7 = call ptr @sdsnew(ptr noundef %6)
  call void @luaPushErrorBuff(ptr noundef %5, ptr noundef %7)
  ret void
}

; Function Attrs: nounwind uwtable
define internal i32 @luaRedisReturnSingleFieldTable(ptr noundef %0, ptr noundef %1) #0 {
  %3 = alloca i32, align 4
  %4 = alloca ptr, align 8
  %5 = alloca ptr, align 8
  store ptr %0, ptr %4, align 8, !tbaa !5
  store ptr %1, ptr %5, align 8, !tbaa !10
  %6 = load ptr, ptr %4, align 8, !tbaa !5
  %7 = call i32 @lua_gettop(ptr noundef %6)
  %8 = icmp ne i32 %7, 1
  br i1 %8, label %13, label %9

9:                                                ; preds = %2
  %10 = load ptr, ptr %4, align 8, !tbaa !5
  %11 = call i32 @lua_type(ptr noundef %10, i32 noundef -1)
  %12 = icmp ne i32 %11, 4
  br i1 %12, label %13, label %15

13:                                               ; preds = %9, %2
  %14 = load ptr, ptr %4, align 8, !tbaa !5
  call void @luaPushError(ptr noundef %14, ptr noundef @.str.117)
  store i32 1, ptr %3, align 4
  br label %21

15:                                               ; preds = %9
  %16 = load ptr, ptr %4, align 8, !tbaa !5
  call void @lua_createtable(ptr noundef %16, i32 noundef 0, i32 noundef 0)
  %17 = load ptr, ptr %4, align 8, !tbaa !5
  %18 = load ptr, ptr %5, align 8, !tbaa !10
  call void @lua_pushstring(ptr noundef %17, ptr noundef %18)
  %19 = load ptr, ptr %4, align 8, !tbaa !5
  call void @lua_pushvalue(ptr noundef %19, i32 noundef -3)
  %20 = load ptr, ptr %4, align 8, !tbaa !5
  call void @lua_settable(ptr noundef %20, i32 noundef -3)
  store i32 1, ptr %3, align 4
  br label %21

21:                                               ; preds = %15, %13
  %22 = load i32, ptr %3, align 4
  ret i32 %22
}

; Function Attrs: nounwind uwtable
define internal i32 @luaRedisStatusReplyCommand(ptr noundef %0) #0 {
  %2 = alloca ptr, align 8
  store ptr %0, ptr %2, align 8, !tbaa !5
  %3 = load ptr, ptr %2, align 8, !tbaa !5
  %4 = call i32 @luaRedisReturnSingleFieldTable(ptr noundef %3, ptr noundef @.str.107)
  ret i32 %4
}