; Function Attrs: nounwind uwtable
define internal noundef i32 @luaRedisStatusReplyCommand(ptr noundef %0) #0 {
  %2 = tail call i32 @lua_gettop(ptr noundef %0) #11
  %.not.i = icmp eq i32 %2, 1
  br i1 %.not.i, label %3, label %5

3:                                                ; preds = %1
  %4 = tail call i32 @lua_type(ptr noundef %0, i32 noundef -1) #11
  %.not8.i = icmp eq i32 %4, 4
  br i1 %.not8.i, label %7, label %5

5:                                                ; preds = %3, %1
  %6 = tail call ptr @sdsnew(ptr noundef nonnull @.str.117) #11
  tail call void @luaPushErrorBuff(ptr noundef %0, ptr noundef %6)
  br label %luaRedisReturnSingleFieldTable.exit

7:                                                ; preds = %3
  tail call void @lua_createtable(ptr noundef %0, i32 noundef 0, i32 noundef 0) #11
  tail call void @lua_pushstring(ptr noundef %0, ptr noundef nonnull @.str.107) #11
  tail call void @lua_pushvalue(ptr noundef %0, i32 noundef -3) #11
  tail call void @lua_settable(ptr noundef %0, i32 noundef -3) #11
  br label %luaRedisReturnSingleFieldTable.exit

luaRedisReturnSingleFieldTable.exit:              ; preds = %5, %7
  ret i32 1
}